; Function Attrs: mustprogress nofree norecurse nosync nounwind willreturn memory(read, inaccessiblemem: none) uwtable
define dso_local noundef zeroext i1 @_ZNK15cmTestGenerator19NeedsScriptNoConfigEv(ptr nocapture noundef nonnull readonly align 8 dereferenceable(129) %0) unnamed_addr #8 align 2 {
  %2 = getelementptr inbounds i8, ptr %0, i64 128
  %3 = load i8, ptr %2, align 8
  %4 = and i8 %3, 1
  %.not = icmp eq i8 %4, 0
  br i1 %.not, label %22, label %5

5:                                                ; preds = %1
  %6 = getelementptr inbounds i8, ptr %0, i64 104
  %7 = load i8, ptr %6, align 8
  %8 = and i8 %7, 1
  %.not1 = icmp eq i8 %8, 0
  br i1 %.not1, label %22, label %9

9:                                                ; preds = %5
  %10 = getelementptr inbounds i8, ptr %0, i64 40
  %11 = load ptr, ptr %10, align 8
  %12 = getelementptr inbounds i8, ptr %0, i64 48
  %13 = load ptr, ptr %12, align 8
  %14 = icmp eq ptr %11, %13
  br i1 %14, label %15, label %22

15:                                               ; preds = %9
  %16 = getelementptr inbounds i8, ptr %0, i64 96
  %17 = load ptr, ptr %16, align 8
  %18 = load ptr, ptr %17, align 8
  %19 = getelementptr inbounds i8, ptr %17, i64 8
  %20 = load ptr, ptr %19, align 8
  %21 = icmp ne ptr %18, %20
  br label %22

22:                                               ; preds = %15, %9, %5, %1
  %23 = phi i1 [ false, %9 ], [ false, %5 ], [ false, %1 ], [ %21, %15 ]
  ret i1 %23
}